; Function Attrs: mustprogress nounwind uwtable
define internal fastcc void @_ZN21PXR_INTERNAL_NS_pegtl8internal12unwind_guardIZNS0_20match_control_unwindINS_3sorIJNS_3seqIJNS_5ascii3oneIJLc92EEEEN32pxrInternal_v0_24__pxrReserved__12_GLOBAL__N_123QuotedStringEscapedCharILc39EEEEEENS4_IJNS_6not_atIJNS3_IJNS9_13VariableStartENS6_IJLc39EEEEEEEEEENS5_3anyEEEEEEELNS_10apply_modeE1ELNS_11rewind_modeE0ETtTpTyENS9_6ActionETtTpTyENS_13state_controlINS9_6ErrorsEE4typeENS_12memory_inputILNS_13tracking_modeE0ENS5_3eol7lf_crlfENSt7__cxx1112basic_stringIcSt11char_traitsIcESaIcEEEEEJRNS9_13ParserContextERNS_6tracerINS_13tracer_traitsILb1ELb1ELm2ELm8EEEEEEEEDaRT4_DpOT5_EUlvE_ED2Ev(ptr nocapture noundef nonnull readonly align 8 dereferenceable(32) %0) unnamed_addr #5 align 2 personality ptr @__gxx_personality_v0 {
  %2 = getelementptr inbounds i8, ptr %0, i64 24
  %.val = load i8, ptr %2, align 8
  %3 = trunc i8 %.val to i1
  br i1 %3, label %4, label %_ZZN21PXR_INTERNAL_NS_pegtl8internal20match_control_unwindINS_3sorIJNS_3seqIJNS_5ascii3oneIJLc92EEEEN32pxrInternal_v0_24__pxrReserved__12_GLOBAL__N_123QuotedStringEscapedCharILc39EEEEEENS3_IJNS_6not_atIJNS2_IJNS8_13VariableStartENS5_IJLc39EEEEEEEEEENS4_3anyEEEEEEELNS_10apply_modeE1ELNS_11rewind_modeE0ETtTpTyENS8_6ActionETtTpTyENS_13state_controlINS8_6ErrorsEE4typeENS_12memory_inputILNS_13tracking_modeE0ENS4_3eol7lf_crlfENSt7__cxx1112basic_stringIcSt11char_traitsIcESaIcEEEEEJRNS8_13ParserContextERNS_6tracerINS_13tracer_traitsILb1ELb1ELm2ELm8EEEEEEEEDaRT4_DpOT5_ENKUlvE_clEv.exit

4:                                                ; preds = %1
  %5 = load ptr, ptr %0, align 8
  %6 = getelementptr inbounds nuw i8, ptr %0, i64 16
  %7 = load ptr, ptr %6, align 8
  invoke fastcc void @_ZN21PXR_INTERNAL_NS_pegtl14shuffle_statesINS_13state_controlIN32pxrInternal_v0_24__pxrReserved__12_GLOBAL__N_16ErrorsEE7controlINS_3sorIJNS_3seqIJNS_5ascii3oneIJLc92EEEENS3_23QuotedStringEscapedCharILc39EEEEEENS8_IJNS_6not_atIJNS7_IJNS3_13VariableStartENSA_IJLc39EEEEEEEEEENS9_3anyEEEEEEEEENS_8internal12rotate_rightILm1EEEE6unwindINS_12memory_inputILNS_13tracking_modeE0ENS9_3eol7lf_crlfENSt7__cxx1112basic_stringIcSt11char_traitsIcESaIcEEEEEJRNS3_13ParserContextERNS_6tracerINS_13tracer_traitsILb1ELb1ELm2ELm8EEEEEEEEDTcl11unwind_implfp_clsr3stdE3tiespfp0_Ecv18__make_integer_seqISt16integer_sequencemXsZfp0_EE_EEERKT_DpOT0_(ptr noundef nonnull align 8 dereferenceable(88) %5, ptr noundef nonnull align 8 dereferenceable(96) %7)
          to label %_ZZN21PXR_INTERNAL_NS_pegtl8internal20match_control_unwindINS_3sorIJNS_3seqIJNS_5ascii3oneIJLc92EEEEN32pxrInternal_v0_24__pxrReserved__12_GLOBAL__N_123QuotedStringEscapedCharILc39EEEEEENS3_IJNS_6not_atIJNS2_IJNS8_13VariableStartENS5_IJLc39EEEEEEEEEENS4_3anyEEEEEEELNS_10apply_modeE1ELNS_11rewind_modeE0ETtTpTyENS8_6ActionETtTpTyENS_13state_controlINS8_6ErrorsEE4typeENS_12memory_inputILNS_13tracking_modeE0ENS4_3eol7lf_crlfENSt7__cxx1112basic_stringIcSt11char_traitsIcESaIcEEEEEJRNS8_13ParserContextERNS_6tracerINS_13tracer_traitsILb1ELb1ELm2ELm8EEEEEEEEDaRT4_DpOT5_ENKUlvE_clEv.exit unwind label %8

_ZZN21PXR_INTERNAL_NS_pegtl8internal20match_control_unwindINS_3sorIJNS_3seqIJNS_5ascii3oneIJLc92EEEEN32pxrInternal_v0_24__pxrReserved__12_GLOBAL__N_123QuotedStringEscapedCharILc39EEEEEENS3_IJNS_6not_atIJNS2_IJNS8_13VariableStartENS5_IJLc39EEEEEEEEEENS4_3anyEEEEEEELNS_10apply_modeE1ELNS_11rewind_modeE0ETtTpTyENS8_6ActionETtTpTyENS_13state_controlINS8_6ErrorsEE4typeENS_12memory_inputILNS_13tracking_modeE0ENS4_3eol7lf_crlfENSt7__cxx1112basic_stringIcSt11char_traitsIcESaIcEEEEEJRNS8_13ParserContextERNS_6tracerINS_13tracer_traitsILb1ELb1ELm2ELm8EEEEEEEEDaRT4_DpOT5_ENKUlvE_clEv.exit: ; preds = %4, %1
  ret void

8:                                                ; preds = %4
  %9 = landingpad { ptr, i32 }
          catch ptr null
  %10 = extractvalue { ptr, i32 } %9, 0
  tail call void @__clang_call_terminate(ptr %10) #28
  unreachable
}